target datalayout = "e-m:e-p270:32:32-p271:32:32-p272:64:64-i64:64-i128:128-f80:128-n8:16:32:64-S128"
target triple = "x86_64-pc-linux-gnu"

%struct.ccan_list_head = type { %struct.ccan_list_node }
%struct.ccan_list_node = type { ptr, ptr }
%struct.rb_objspace = type { %struct.anon.33, %struct.rb_gc_config, [3 x i8], %struct.anon.19, i32, i64, [5 x %struct.rb_heap_struct], i64, ptr, %struct.anon.34, %struct.mark_stack, i64, %struct.anon.35, ptr, %struct.anon.36, i64, %struct.anon.37, %struct.anon.38, %struct.anon.39, ptr, ptr, i64, ptr, i32, i64 }
%struct.anon.33 = type { i64, i64 }
%struct.rb_gc_config = type { i8 }
%struct.anon.19 = type { i16, [2 x i8] }
%struct.rb_heap_struct = type { i16, i64, i64, i64, i64, i64, i64, i64, i64, ptr, %struct.ccan_list_head, ptr, ptr, i64, ptr, i64, i64 }
%struct.anon.34 = type { i32 }
%struct.mark_stack = type { ptr, ptr, i32, i32, i64, i64 }
%struct.anon.35 = type { ptr, i64, i64, [2 x i64], i64, i64, i64 }
%struct.anon.36 = type { i32, i32, ptr, ptr, i64, i64, double, i64, i64, i64, i64, double, i64, i64, i64, i64, %struct.timespec, i64, %struct.timespec, i64, i64 }
%struct.timespec = type { i64, i64 }
%struct.anon.37 = type { i64, i32, i64, i64, i64, i64, i64, i64, i64 }
%struct.anon.38 = type { [31 x i64], [31 x i64], [31 x i64], [31 x i64], i64, ptr }
%struct.anon.39 = type { i64, i64 }
%struct.objspace_and_reason = type { ptr, i32 }

@.str = private unnamed_addr constant [8 x i8] c"../gc.c\00", align 1
@ruby_single_main_ractor = external global ptr, align 8

; Function Attrs: inlinehint nounwind sspstrong uwtable
define internal zeroext i1 @rb_multi_ractor_p() #2 {
  %1 = alloca i1, align 1
  %2 = load ptr, ptr @ruby_single_main_ractor, align 8, !tbaa !16
  %3 = icmp ne ptr %2, null
  %4 = xor i1 %3, true
  %5 = xor i1 %4, true
  %6 = zext i1 %5 to i32
  %7 = sext i32 %6 to i64
  %8 = call i64 @llvm.expect.i64(i64 %7, i64 1)
  %9 = icmp ne i64 %8, 0
  br i1 %9, label %10, label %11

10:                                               ; preds = %0
  store i1 false, ptr %1, align 1
  br label %12

11:                                               ; preds = %0
  store i1 true, ptr %1, align 1
  br label %12

12:                                               ; preds = %11, %10
  %13 = load i1, ptr %1, align 1
  ret i1 %13
}

; Function Attrs: inlinehint nounwind sspstrong uwtable
define internal void @rb_vm_lock_leave(ptr noundef %0, ptr noundef %1, i32 noundef %2) #2 {
  %4 = alloca ptr, align 8
  %5 = alloca ptr, align 8
  %6 = alloca i32, align 4
  store ptr %0, ptr %4, align 8, !tbaa !11
  store ptr %1, ptr %5, align 8, !tbaa !14
  store i32 %2, ptr %6, align 4, !tbaa !7
  %7 = call zeroext i1 @rb_multi_ractor_p()
  br i1 %7, label %8, label %10

8:                                                ; preds = %3
  %9 = load ptr, ptr %4, align 8, !tbaa !11
  call void @rb_vm_lock_leave_body(ptr noundef %9)
  br label %10

10:                                               ; preds = %8, %3
  ret void
}

; Function Attrs: inlinehint nounwind sspstrong uwtable
define internal void @rb_vm_lock_enter(ptr noundef %0, ptr noundef %1, i32 noundef %2) #2 {
  %4 = alloca ptr, align 8
  %5 = alloca ptr, align 8
  %6 = alloca i32, align 4
  store ptr %0, ptr %4, align 8, !tbaa !11
  store ptr %1, ptr %5, align 8, !tbaa !14
  store i32 %2, ptr %6, align 4, !tbaa !7
  %7 = call zeroext i1 @rb_multi_ractor_p()
  br i1 %7, label %8, label %10

8:                                                ; preds = %3
  %9 = load ptr, ptr %4, align 8, !tbaa !11
  call void @rb_vm_lock_enter_body(ptr noundef %9)
  br label %10

10:                                               ; preds = %8, %3
  ret void
}

; Function Attrs: nounwind sspstrong uwtable
define dso_local void @rb_gc_vm_unlock(i32 noundef %0) #0 {
  %2 = alloca i32, align 4
  store i32 %0, ptr %2, align 4, !tbaa !7
  call void @rb_vm_lock_leave(ptr noundef %2, ptr noundef @.str, i32 noundef 144)
  ret void
}

; Function Attrs: nounwind sspstrong uwtable
define dso_local i32 @rb_gc_vm_lock() #0 {
  %1 = alloca i32, align 4
  call void @llvm.lifetime.start.p0(i64 4, ptr %1) #6
  call void @rb_vm_lock_enter(ptr noundef %1, ptr noundef @.str, i32 noundef 137)
  %2 = load i32, ptr %1, align 4, !tbaa !7
  call void @llvm.lifetime.end.p0(i64 4, ptr %1) #6
  ret i32 %2
}

; Function Attrs: nounwind sspstrong uwtable
define internal i32 @garbage_collect(ptr noundef %0, i32 noundef %1) #0 {
  %3 = alloca ptr, align 8
  %4 = alloca i32, align 4
  %5 = alloca i32, align 4
  %6 = alloca i32, align 4
  store ptr %0, ptr %3, align 8, !tbaa !125
  store i32 %1, ptr %4, align 4, !tbaa !7
  call void @llvm.lifetime.start.p0(i64 4, ptr %5) #6
  call void @llvm.lifetime.start.p0(i64 4, ptr %6) #6
  %7 = call i32 @rb_gc_vm_lock()
  store i32 %7, ptr %6, align 4, !tbaa !7
  %8 = load ptr, ptr %3, align 8, !tbaa !125
  call void @gc_rest(ptr noundef %8)
  %9 = load ptr, ptr %3, align 8, !tbaa !125
  %10 = load i32, ptr %4, align 4, !tbaa !7
  %11 = call i32 @gc_start(ptr noundef %9, i32 noundef %10)
  store i32 %11, ptr %5, align 4, !tbaa !7
  %12 = load i32, ptr %6, align 4, !tbaa !7
  call void @rb_gc_vm_unlock(i32 noundef %12)
  %13 = load i32, ptr %5, align 4, !tbaa !7
  call void @llvm.lifetime.end.p0(i64 4, ptr %6) #6
  call void @llvm.lifetime.end.p0(i64 4, ptr %5) #6
  ret i32 %13
}

; Function Attrs: nounwind sspstrong uwtable
define internal i32 @garbage_collect_with_gvl(ptr noundef %0, i32 noundef %1) #0 {
  %3 = alloca i32, align 4
  %4 = alloca ptr, align 8
  %5 = alloca i32, align 4
  %6 = alloca ptr, align 8
  %7 = alloca %struct.objspace_and_reason, align 8
  store ptr %0, ptr %4, align 8, !tbaa !125
  store i32 %1, ptr %5, align 4, !tbaa !7
  %8 = load ptr, ptr %4, align 8, !tbaa !125
  %9 = getelementptr inbounds nuw %struct.rb_objspace, ptr %8, i32 0, i32 3
  %10 = load i16, ptr %9, align 4
  %11 = lshr i16 %10, 3
  %12 = and i16 %11, 1
  %13 = zext i16 %12 to i32
  %14 = icmp ne i32 %13, 0
  br i1 %14, label %15, label %16

15:                                               ; preds = %2
  store i32 1, ptr %3, align 4
  br label %38

16:                                               ; preds = %2
  %17 = call i32 @ruby_native_thread_p()
  %18 = icmp ne i32 %17, 0
  br i1 %18, label %20, label %19

19:                                               ; preds = %16
  store i32 1, ptr %3, align 4
  br label %38

20:                                               ; preds = %16
  %21 = call i32 @ruby_thread_has_gvl_p()
  %22 = icmp ne i32 %21, 0
  br i1 %22, label %34, label %23

23:                                               ; preds = %20
  call void @llvm.lifetime.start.p0(i64 8, ptr %6) #6
  call void @llvm.lifetime.start.p0(i64 16, ptr %7) #6
  %24 = load ptr, ptr %4, align 8, !tbaa !125
  %25 = getelementptr inbounds nuw %struct.objspace_and_reason, ptr %7, i32 0, i32 0
  store ptr %24, ptr %25, align 8, !tbaa !744
  %26 = load i32, ptr %5, align 4, !tbaa !7
  %27 = getelementptr inbounds nuw %struct.objspace_and_reason, ptr %7, i32 0, i32 1
  store i32 %26, ptr %27, align 8, !tbaa !746
  %28 = call ptr @rb_thread_call_with_gvl(ptr noundef @gc_with_gvl, ptr noundef %7)
  store ptr %28, ptr %6, align 8, !tbaa !76
  %29 = load ptr, ptr %6, align 8, !tbaa !76
  %30 = icmp ne ptr %29, null
  %31 = xor i1 %30, true
  %32 = xor i1 %31, true
  %33 = zext i1 %32 to i32
  store i32 %33, ptr %3, align 4
  call void @llvm.lifetime.end.p0(i64 16, ptr %7) #6
  call void @llvm.lifetime.end.p0(i64 8, ptr %6) #6
  br label %38

34:                                               ; preds = %20
  %35 = load ptr, ptr %4, align 8, !tbaa !125
  %36 = load i32, ptr %5, align 4, !tbaa !7
  %37 = call i32 @garbage_collect(ptr noundef %35, i32 noundef %36)
  store i32 %37, ptr %3, align 4
  br label %38

38:                                               ; preds = %34, %23, %19, %15
  %39 = load i32, ptr %3, align 4
  ret i32 %39
}