; Function Attrs: nounwind sspstrong uwtable
define internal fastcc range(i32 0, 2) i32 @garbage_collect_with_gvl(ptr noundef %0, i32 noundef range(i32 512, 111105) %1) unnamed_addr #0 {
  %3 = alloca i32, align 4
  %4 = alloca i32, align 4
  %5 = alloca %struct.objspace_and_reason, align 8
  %6 = getelementptr inbounds nuw i8, ptr %0, i64 20
  %7 = load i16, ptr %6, align 4
  %8 = and i16 %7, 8
  %.not = icmp eq i16 %8, 0
  br i1 %.not, label %9, label %24

9:                                                ; preds = %2
  %10 = tail call i32 @ruby_native_thread_p() #7
  %.not6 = icmp eq i32 %10, 0
  br i1 %.not6, label %24, label %11

11:                                               ; preds = %9
  %12 = tail call i32 @ruby_thread_has_gvl_p() #7
  %.not7 = icmp eq i32 %12, 0
  br i1 %.not7, label %13, label %18

13:                                               ; preds = %11
  call void @llvm.lifetime.start.p0(i64 16, ptr nonnull %5) #7
  store ptr %0, ptr %5, align 8, !tbaa !667
  %14 = getelementptr inbounds nuw i8, ptr %5, i64 8
  store i32 %1, ptr %14, align 8, !tbaa !669
  %15 = call ptr @rb_thread_call_with_gvl(ptr noundef nonnull @gc_with_gvl, ptr noundef nonnull %5) #7
  %16 = icmp ne ptr %15, null
  %17 = zext i1 %16 to i32
  call void @llvm.lifetime.end.p0(i64 16, ptr nonnull %5) #7
  br label %24

18:                                               ; preds = %11
  call void @llvm.lifetime.start.p0(i64 4, ptr nonnull %4) #7
  %19 = load ptr, ptr @ruby_single_main_ractor, align 8, !tbaa !7
  %.not.i.i.i.i = icmp eq ptr %19, null
  br i1 %.not.i.i.i.i, label %20, label %rb_gc_vm_lock.exit.i

20:                                               ; preds = %18
  call void @rb_vm_lock_enter_body(ptr noundef nonnull %4) #7
  %.pre.i.i = load i32, ptr %4, align 4, !tbaa !12
  br label %rb_gc_vm_lock.exit.i

rb_gc_vm_lock.exit.i:                             ; preds = %20, %18
  %21 = phi i32 [ undef, %18 ], [ %.pre.i.i, %20 ]
  call void @llvm.lifetime.end.p0(i64 4, ptr nonnull %4) #7
  call fastcc void @gc_rest(ptr noundef nonnull %0)
  call fastcc void @gc_start(ptr noundef nonnull %0, i32 noundef %1)
  call void @llvm.lifetime.start.p0(i64 4, ptr nonnull %3)
  store i32 %21, ptr %3, align 4, !tbaa !12
  %22 = load ptr, ptr @ruby_single_main_ractor, align 8, !tbaa !7
  %.not.i.i.i4.i = icmp eq ptr %22, null
  br i1 %.not.i.i.i4.i, label %23, label %garbage_collect.exit

23:                                               ; preds = %rb_gc_vm_lock.exit.i
  call void @rb_vm_lock_leave_body(ptr noundef nonnull %3) #7
  br label %garbage_collect.exit

garbage_collect.exit:                             ; preds = %rb_gc_vm_lock.exit.i, %23
  call void @llvm.lifetime.end.p0(i64 4, ptr nonnull %3)
  br label %24

24:                                               ; preds = %9, %2, %garbage_collect.exit, %13
  %.0 = phi i32 [ 1, %garbage_collect.exit ], [ %17, %13 ], [ 1, %2 ], [ 1, %9 ]
  ret i32 %.0
}